target datalayout = "e-m:e-p270:32:32-p271:32:32-p272:64:64-i64:64-i128:128-f80:128-n8:16:32:64-S128"
target triple = "x86_64-pc-linux-gnu"

%struct.yyguts_t = type { ptr, ptr, ptr, i64, i64, ptr, i8, i64, i64, ptr, i32, i32, i32, i32, i32, ptr, i32, ptr, i32, i32, ptr, i32, i32, ptr }

; Function Attrs: mustprogress nounwind uwtable
define internal noundef i32 @_ZL15yy_init_globalsPv(ptr noundef %0) #1 {
  %2 = alloca ptr, align 8
  %3 = alloca ptr, align 8
  store ptr %0, ptr %2, align 8
  %4 = load ptr, ptr %2, align 8
  store ptr %4, ptr %3, align 8
  %5 = load ptr, ptr %3, align 8
  %6 = getelementptr inbounds nuw %struct.yyguts_t, ptr %5, i32 0, i32 5
  store ptr null, ptr %6, align 8
  %7 = load ptr, ptr %3, align 8
  %8 = getelementptr inbounds nuw %struct.yyguts_t, ptr %7, i32 0, i32 3
  store i64 0, ptr %8, align 8
  %9 = load ptr, ptr %3, align 8
  %10 = getelementptr inbounds nuw %struct.yyguts_t, ptr %9, i32 0, i32 4
  store i64 0, ptr %10, align 8
  %11 = load ptr, ptr %3, align 8
  %12 = getelementptr inbounds nuw %struct.yyguts_t, ptr %11, i32 0, i32 9
  store ptr null, ptr %12, align 8
  %13 = load ptr, ptr %3, align 8
  %14 = getelementptr inbounds nuw %struct.yyguts_t, ptr %13, i32 0, i32 10
  store i32 0, ptr %14, align 8
  %15 = load ptr, ptr %3, align 8
  %16 = getelementptr inbounds nuw %struct.yyguts_t, ptr %15, i32 0, i32 11
  store i32 0, ptr %16, align 4
  %17 = load ptr, ptr %3, align 8
  %18 = getelementptr inbounds nuw %struct.yyguts_t, ptr %17, i32 0, i32 13
  store i32 0, ptr %18, align 4
  %19 = load ptr, ptr %3, align 8
  %20 = getelementptr inbounds nuw %struct.yyguts_t, ptr %19, i32 0, i32 14
  store i32 0, ptr %20, align 8
  %21 = load ptr, ptr %3, align 8
  %22 = getelementptr inbounds nuw %struct.yyguts_t, ptr %21, i32 0, i32 15
  store ptr null, ptr %22, align 8
  %23 = load ptr, ptr %3, align 8
  %24 = getelementptr inbounds nuw %struct.yyguts_t, ptr %23, i32 0, i32 1
  store ptr null, ptr %24, align 8
  %25 = load ptr, ptr %3, align 8
  %26 = getelementptr inbounds nuw %struct.yyguts_t, ptr %25, i32 0, i32 2
  store ptr null, ptr %26, align 8
  ret i32 0
}

; Function Attrs: mustprogress nounwind uwtable
define noundef ptr @_Z21textFileFormatYyallocmPv(i64 noundef %0, ptr noundef %1) #1 {
  %3 = alloca i64, align 8
  %4 = alloca ptr, align 8
  store i64 %0, ptr %3, align 8
  store ptr %1, ptr %4, align 8
  %5 = load i64, ptr %3, align 8
  %6 = call noalias ptr @malloc(i64 noundef %5) #16
  ret ptr %6
}

; Function Attrs: mustprogress uwtable
define noundef i32 @_Z24textFileFormatYylex_initPPv(ptr noundef %0) #0 {
  %2 = alloca i32, align 4
  %3 = alloca ptr, align 8
  store ptr %0, ptr %3, align 8
  %4 = load ptr, ptr %3, align 8
  %5 = icmp eq ptr %4, null
  br i1 %5, label %6, label %8

6:                                                ; preds = %1
  %7 = call ptr @__errno_location() #14
  store i32 22, ptr %7, align 4
  store i32 1, ptr %2, align 4
  br label %22

8:                                                ; preds = %1
  %9 = call noundef ptr @_Z21textFileFormatYyallocmPv(i64 noundef 160, ptr noundef null)
  %10 = load ptr, ptr %3, align 8
  store ptr %9, ptr %10, align 8
  %11 = load ptr, ptr %3, align 8
  %12 = load ptr, ptr %11, align 8
  %13 = icmp eq ptr %12, null
  br i1 %13, label %14, label %16

14:                                               ; preds = %8
  %15 = call ptr @__errno_location() #14
  store i32 12, ptr %15, align 4
  store i32 1, ptr %2, align 4
  br label %22

16:                                               ; preds = %8
  %17 = load ptr, ptr %3, align 8
  %18 = load ptr, ptr %17, align 8
  call void @llvm.memset.p0.i64(ptr align 1 %18, i8 0, i64 160, i1 false)
  %19 = load ptr, ptr %3, align 8
  %20 = load ptr, ptr %19, align 8
  %21 = call noundef i32 @_ZL15yy_init_globalsPv(ptr noundef %20)
  store i32 %21, ptr %2, align 4
  br label %22

22:                                               ; preds = %16, %14, %6
  %23 = load i32, ptr %2, align 4
  ret i32 %23
}